; Function Attrs: nofree nounwind memory(readwrite, inaccessiblemem: none) uwtable
define void @col_set_fence(ptr noundef readonly %0, i32 noundef %1) local_unnamed_addr #6 {
  %3 = icmp eq ptr %0, null
  br i1 %3, label %col_get_writable.exit.thread, label %4

4:                                                ; preds = %2
  %5 = icmp eq i32 %1, -1
  %.phi.trans.insert.i = getelementptr inbounds nuw i8, ptr %0, i64 56
  %.pre.i = load i32, ptr %.phi.trans.insert.i, align 8
  br i1 %5, label %col_get_writable.exit, label %6

6:                                                ; preds = %4
  %7 = icmp eq i32 %.pre.i, 0
  br i1 %7, label %col_get_writable.exit.thread, label %8

8:                                                ; preds = %6
  %9 = getelementptr inbounds nuw i8, ptr %0, i64 24
  %10 = load ptr, ptr %9, align 8
  %11 = sext i32 %1 to i64
  %12 = getelementptr i32, ptr %10, i64 %11
  %13 = load i32, ptr %12, align 4
  %14 = icmp sgt i32 %13, -1
  br i1 %14, label %.preheader.i, label %col_get_writable.exit.thread

.preheader.i:                                     ; preds = %8
  %15 = getelementptr inbounds nuw i8, ptr %0, i64 32
  %16 = load ptr, ptr %15, align 8
  %17 = getelementptr i32, ptr %16, i64 %11
  %18 = load i32, ptr %17, align 4
  %.not22.i = icmp sgt i32 %13, %18
  br i1 %.not22.i, label %col_get_writable.exit.thread, label %.lr.ph.i

.lr.ph.i:                                         ; preds = %.preheader.i
  %19 = getelementptr inbounds nuw i8, ptr %0, i64 16
  %20 = load ptr, ptr %19, align 8
  br label %23

21:                                               ; preds = %23
  %22 = add i32 %.01723.i, 1
  %.not.i = icmp sgt i32 %22, %18
  br i1 %.not.i, label %col_get_writable.exit.thread, label %23, !llvm.loop !9

23:                                               ; preds = %21, %.lr.ph.i
  %.01723.i = phi i32 [ %13, %.lr.ph.i ], [ %22, %21 ]
  %24 = sext i32 %.01723.i to i64
  %25 = getelementptr %struct.col_item_t, ptr %20, i64 %24
  %26 = getelementptr inbounds nuw i8, ptr %25, i64 8
  %27 = load ptr, ptr %26, align 8
  %28 = getelementptr i32, ptr %27, i64 %11
  %29 = load i32, ptr %28, align 4
  %.not21.i = icmp eq i32 %29, 0
  br i1 %.not21.i, label %21, label %30

30:                                               ; preds = %23
  %31 = getelementptr inbounds nuw i8, ptr %25, i64 76
  %32 = load i32, ptr %31, align 4
  br label %col_get_writable.exit

col_get_writable.exit:                            ; preds = %4, %30
  %.0.i = phi i32 [ %32, %30 ], [ %.pre.i, %4 ]
  %.not = icmp eq i32 %.0.i, 0
  br i1 %.not, label %col_get_writable.exit.thread, label %33

33:                                               ; preds = %col_get_writable.exit
  %34 = getelementptr inbounds nuw i8, ptr %0, i64 24
  %35 = load ptr, ptr %34, align 8
  %36 = sext i32 %1 to i64
  %37 = getelementptr i32, ptr %35, i64 %36
  %38 = load i32, ptr %37, align 4
  %39 = icmp sgt i32 %38, -1
  br i1 %39, label %.preheader, label %col_get_writable.exit.thread

.preheader:                                       ; preds = %33
  %40 = getelementptr inbounds nuw i8, ptr %0, i64 32
  %41 = load ptr, ptr %40, align 8
  %42 = getelementptr i32, ptr %41, i64 %36
  %43 = load i32, ptr %42, align 4
  %.not1622 = icmp sgt i32 %38, %43
  br i1 %.not1622, label %col_get_writable.exit.thread, label %.lr.ph

.lr.ph:                                           ; preds = %.preheader
  %44 = getelementptr inbounds nuw i8, ptr %0, i64 16
  br label %45

45:                                               ; preds = %.lr.ph, %60
  %46 = phi ptr [ %41, %.lr.ph ], [ %61, %60 ]
  %.023 = phi i32 [ %38, %.lr.ph ], [ %62, %60 ]
  %47 = load ptr, ptr %44, align 8
  %48 = sext i32 %.023 to i64
  %49 = getelementptr %struct.col_item_t, ptr %47, i64 %48
  %50 = getelementptr inbounds nuw i8, ptr %49, i64 8
  %51 = load ptr, ptr %50, align 8
  %52 = getelementptr i32, ptr %51, i64 %36
  %53 = load i32, ptr %52, align 4
  %.not17 = icmp eq i32 %53, 0
  br i1 %.not17, label %60, label %54

54:                                               ; preds = %45
  %55 = getelementptr inbounds nuw i8, ptr %49, i64 56
  %56 = load ptr, ptr %55, align 8
  %57 = tail call i64 @strlen(ptr noundef nonnull dereferenceable(1) %56) #18
  %58 = trunc i64 %57 to i32
  %59 = getelementptr inbounds nuw i8, ptr %49, i64 72
  store i32 %58, ptr %59, align 8
  %.pre = load ptr, ptr %40, align 8
  br label %60

60:                                               ; preds = %45, %54
  %61 = phi ptr [ %46, %45 ], [ %.pre, %54 ]
  %62 = add i32 %.023, 1
  %63 = getelementptr i32, ptr %61, i64 %36
  %64 = load i32, ptr %63, align 4
  %.not16 = icmp sgt i32 %62, %64
  br i1 %.not16, label %col_get_writable.exit.thread, label %45, !llvm.loop !11

col_get_writable.exit.thread:                     ; preds = %21, %60, %.preheader, %6, %.preheader.i, %8, %2, %col_get_writable.exit, %33
  ret void
}